target datalayout = "e-m:e-p270:32:32-p271:32:32-p272:64:64-i64:64-i128:128-f80:128-n8:16:32:64-S128"
target triple = "x86_64-pc-linux-gnu"

%"class.std::__cxx11::basic_string" = type { %"struct.std::__cxx11::basic_string<char>::_Alloc_hider", i64, %union.anon }
%"struct.std::__cxx11::basic_string<char>::_Alloc_hider" = type { ptr }
%union.anon = type { i64, [8 x i8] }
%"class.llvm::StringRef" = type { ptr, i64 }
%"struct.llvm::vfs::YAMLVFSEntry" = type <{ %"class.std::__cxx11::basic_string", %"class.std::__cxx11::basic_string", i8, [7 x i8] }>
%"class.llvm::vfs::YAMLVFSWriter" = type { %"class.std::vector.266", %"class.std::optional.271", %"class.std::optional.271", %"class.std::optional.271", %"class.std::__cxx11::basic_string" }
%"class.std::vector.266" = type { %"struct.std::_Vector_base.267" }
%"struct.std::_Vector_base.267" = type { %"struct.std::_Vector_base<llvm::vfs::YAMLVFSEntry, std::allocator<llvm::vfs::YAMLVFSEntry>>::_Vector_impl" }
%"struct.std::_Vector_base<llvm::vfs::YAMLVFSEntry, std::allocator<llvm::vfs::YAMLVFSEntry>>::_Vector_impl" = type { %"struct.std::_Vector_base<llvm::vfs::YAMLVFSEntry, std::allocator<llvm::vfs::YAMLVFSEntry>>::_Vector_impl_data" }
%"struct.std::_Vector_base<llvm::vfs::YAMLVFSEntry, std::allocator<llvm::vfs::YAMLVFSEntry>>::_Vector_impl_data" = type { ptr, ptr, ptr }
%"class.std::optional.271" = type { %"struct.std::_Optional_base.272" }
%"struct.std::_Optional_base.272" = type { %"struct.std::_Optional_payload.274" }
%"struct.std::_Optional_payload.274" = type { %"struct.std::_Optional_payload_base.275" }
%"struct.std::_Optional_payload_base.275" = type { %"union.std::_Optional_payload_base<bool>::_Storage", i8 }
%"union.std::_Optional_payload_base<bool>::_Storage" = type { %"struct.std::_Optional_payload_base<bool>::_Empty_byte" }
%"struct.std::_Optional_payload_base<bool>::_Empty_byte" = type { i8 }
%"class.__gnu_cxx::__normal_iterator.506" = type { ptr }

; Function Attrs: mustprogress nounwind uwtable
define linkonce_odr hidden noundef nonnull align 8 dereferenceable(65) ptr @_ZNK9__gnu_cxx17__normal_iteratorIPN4llvm3vfs12YAMLVFSEntryESt6vectorIS3_SaIS3_EEEdeEv(ptr noundef nonnull align 8 dereferenceable(8) %0) #0 comdat align 2 {
  %2 = alloca ptr, align 8
  store ptr %0, ptr %2, align 8
  %3 = load ptr, ptr %2, align 8
  %4 = getelementptr inbounds nuw %"class.__gnu_cxx::__normal_iterator.506", ptr %3, i32 0, i32 0
  %5 = load ptr, ptr %4, align 8
  ret ptr %5
}

; Function Attrs: mustprogress nounwind uwtable
define linkonce_odr hidden ptr @_ZNK9__gnu_cxx17__normal_iteratorIPN4llvm3vfs12YAMLVFSEntryESt6vectorIS3_SaIS3_EEEmiEl(ptr noundef nonnull align 8 dereferenceable(8) %0, i64 noundef %1) #0 comdat align 2 {
  %3 = alloca %"class.__gnu_cxx::__normal_iterator.506", align 8
  %4 = alloca ptr, align 8
  %5 = alloca i64, align 8
  %6 = alloca ptr, align 8
  store ptr %0, ptr %4, align 8
  store i64 %1, ptr %5, align 8
  %7 = load ptr, ptr %4, align 8
  %8 = getelementptr inbounds nuw %"class.__gnu_cxx::__normal_iterator.506", ptr %7, i32 0, i32 0
  %9 = load ptr, ptr %8, align 8
  %10 = load i64, ptr %5, align 8
  %11 = sub i64 0, %10
  %12 = getelementptr inbounds %"struct.llvm::vfs::YAMLVFSEntry", ptr %9, i64 %11
  store ptr %12, ptr %6, align 8
  call void @_ZN9__gnu_cxx17__normal_iteratorIPN4llvm3vfs12YAMLVFSEntryESt6vectorIS3_SaIS3_EEEC2ERKS4_(ptr noundef nonnull align 8 dereferenceable(8) %3, ptr noundef nonnull align 8 dereferenceable(8) %6) #5
  %13 = getelementptr inbounds nuw %"class.__gnu_cxx::__normal_iterator.506", ptr %3, i32 0, i32 0
  %14 = load ptr, ptr %13, align 8
  ret ptr %14
}

; Function Attrs: mustprogress nounwind uwtable
define linkonce_odr hidden void @_ZN9__gnu_cxx17__normal_iteratorIPN4llvm3vfs12YAMLVFSEntryESt6vectorIS3_SaIS3_EEEC2ERKS4_(ptr noundef nonnull align 8 dereferenceable(8) %0, ptr noundef nonnull align 8 dereferenceable(8) %1) unnamed_addr #0 comdat align 2 {
  %3 = alloca ptr, align 8
  %4 = alloca ptr, align 8
  store ptr %0, ptr %3, align 8
  store ptr %1, ptr %4, align 8
  %5 = load ptr, ptr %3, align 8
  %6 = getelementptr inbounds nuw %"class.__gnu_cxx::__normal_iterator.506", ptr %5, i32 0, i32 0
  %7 = load ptr, ptr %4, align 8
  %8 = load ptr, ptr %7, align 8
  store ptr %8, ptr %6, align 8
  ret void
}

; Function Attrs: mustprogress nounwind uwtable
define linkonce_odr hidden void @_ZNSt15__new_allocatorIN4llvm3vfs12YAMLVFSEntryEE9constructIS2_JRNS0_9StringRefES6_RbEEEvPT_DpOT0_(ptr noundef nonnull align 1 dereferenceable(1) %0, ptr noundef %1, ptr noundef nonnull align 8 dereferenceable(16) %2, ptr noundef nonnull align 8 dereferenceable(16) %3, ptr noundef nonnull align 1 dereferenceable(1) %4) #0 comdat align 2 {
  %6 = alloca ptr, align 8
  %7 = alloca ptr, align 8
  %8 = alloca ptr, align 8
  %9 = alloca ptr, align 8
  %10 = alloca ptr, align 8
  store ptr %0, ptr %6, align 8
  store ptr %1, ptr %7, align 8
  store ptr %2, ptr %8, align 8
  store ptr %3, ptr %9, align 8
  store ptr %4, ptr %10, align 8
  %11 = load ptr, ptr %7, align 8
  %12 = load ptr, ptr %8, align 8
  %13 = load ptr, ptr %9, align 8
  %14 = load ptr, ptr %10, align 8
  %15 = load i8, ptr %14, align 1
  %16 = trunc i8 %15 to i1
  call void @_ZN4llvm3vfs12YAMLVFSEntryC2IRNS_9StringRefES4_EEOT_OT0_b(ptr noundef nonnull align 8 dereferenceable(65) %11, ptr noundef nonnull align 8 dereferenceable(16) %12, ptr noundef nonnull align 8 dereferenceable(16) %13, i1 noundef zeroext %16)
  ret void
}

; Function Attrs: mustprogress nounwind uwtable
define linkonce_odr hidden noundef nonnull align 8 dereferenceable(65) ptr @_ZNSt6vectorIN4llvm3vfs12YAMLVFSEntryESaIS2_EE4backEv(ptr noundef nonnull align 8 dereferenceable(24) %0) #0 comdat align 2 {
  %2 = alloca ptr, align 8
  %3 = alloca %"class.__gnu_cxx::__normal_iterator.506", align 8
  %4 = alloca %"class.__gnu_cxx::__normal_iterator.506", align 8
  store ptr %0, ptr %2, align 8
  %5 = load ptr, ptr %2, align 8
  %6 = call ptr @_ZNSt6vectorIN4llvm3vfs12YAMLVFSEntryESaIS2_EE3endEv(ptr noundef nonnull align 8 dereferenceable(24) %5) #5
  %7 = getelementptr inbounds nuw %"class.__gnu_cxx::__normal_iterator.506", ptr %4, i32 0, i32 0
  store ptr %6, ptr %7, align 8
  %8 = call ptr @_ZNK9__gnu_cxx17__normal_iteratorIPN4llvm3vfs12YAMLVFSEntryESt6vectorIS3_SaIS3_EEEmiEl(ptr noundef nonnull align 8 dereferenceable(8) %4, i64 noundef 1) #5
  %9 = getelementptr inbounds nuw %"class.__gnu_cxx::__normal_iterator.506", ptr %3, i32 0, i32 0
  store ptr %8, ptr %9, align 8
  %10 = call noundef nonnull align 8 dereferenceable(65) ptr @_ZNK9__gnu_cxx17__normal_iteratorIPN4llvm3vfs12YAMLVFSEntryESt6vectorIS3_SaIS3_EEEdeEv(ptr noundef nonnull align 8 dereferenceable(8) %3) #5
  ret ptr %10
}

; Function Attrs: mustprogress nounwind uwtable
define linkonce_odr hidden ptr @_ZNSt6vectorIN4llvm3vfs12YAMLVFSEntryESaIS2_EE3endEv(ptr noundef nonnull align 8 dereferenceable(24) %0) #0 comdat align 2 {
  %2 = alloca %"class.__gnu_cxx::__normal_iterator.506", align 8
  %3 = alloca ptr, align 8
  store ptr %0, ptr %3, align 8
  %4 = load ptr, ptr %3, align 8
  %5 = getelementptr inbounds nuw %"struct.std::_Vector_base.267", ptr %4, i32 0, i32 0
  %6 = getelementptr inbounds nuw %"struct.std::_Vector_base<llvm::vfs::YAMLVFSEntry, std::allocator<llvm::vfs::YAMLVFSEntry>>::_Vector_impl_data", ptr %5, i32 0, i32 1
  call void @_ZN9__gnu_cxx17__normal_iteratorIPN4llvm3vfs12YAMLVFSEntryESt6vectorIS3_SaIS3_EEEC2ERKS4_(ptr noundef nonnull align 8 dereferenceable(8) %2, ptr noundef nonnull align 8 dereferenceable(8) %6) #5
  %7 = getelementptr inbounds nuw %"class.__gnu_cxx::__normal_iterator.506", ptr %2, i32 0, i32 0
  %8 = load ptr, ptr %7, align 8
  ret ptr %8
}

; Function Attrs: mustprogress nounwind uwtable
define linkonce_odr hidden void @_ZNSt16allocator_traitsISaIN4llvm3vfs12YAMLVFSEntryEEE9constructIS2_JRNS0_9StringRefES7_RbEEEvRS3_PT_DpOT0_(ptr noundef nonnull align 1 dereferenceable(1) %0, ptr noundef %1, ptr noundef nonnull align 8 dereferenceable(16) %2, ptr noundef nonnull align 8 dereferenceable(16) %3, ptr noundef nonnull align 1 dereferenceable(1) %4) #0 comdat align 2 {
  %6 = alloca ptr, align 8
  %7 = alloca ptr, align 8
  %8 = alloca ptr, align 8
  %9 = alloca ptr, align 8
  %10 = alloca ptr, align 8
  store ptr %0, ptr %6, align 8
  store ptr %1, ptr %7, align 8
  store ptr %2, ptr %8, align 8
  store ptr %3, ptr %9, align 8
  store ptr %4, ptr %10, align 8
  %11 = load ptr, ptr %6, align 8
  %12 = load ptr, ptr %7, align 8
  %13 = load ptr, ptr %8, align 8
  %14 = load ptr, ptr %9, align 8
  %15 = load ptr, ptr %10, align 8
  call void @_ZNSt15__new_allocatorIN4llvm3vfs12YAMLVFSEntryEE9constructIS2_JRNS0_9StringRefES6_RbEEEvPT_DpOT0_(ptr noundef nonnull align 1 dereferenceable(1) %11, ptr noundef %12, ptr noundef nonnull align 8 dereferenceable(16) %13, ptr noundef nonnull align 8 dereferenceable(16) %14, ptr noundef nonnull align 1 dereferenceable(1) %15)
  ret void
}

; Function Attrs: mustprogress nounwind uwtable
define linkonce_odr noundef nonnull align 8 dereferenceable(65) ptr @_ZNSt6vectorIN4llvm3vfs12YAMLVFSEntryESaIS2_EE12emplace_backIJRNS0_9StringRefES7_RbEEERS2_DpOT_(ptr noundef nonnull align 8 dereferenceable(24) %0, ptr noundef nonnull align 8 dereferenceable(16) %1, ptr noundef nonnull align 8 dereferenceable(16) %2, ptr noundef nonnull align 1 dereferenceable(1) %3) #0 comdat align 2 {
  %5 = alloca ptr, align 8
  %6 = alloca ptr, align 8
  %7 = alloca ptr, align 8
  %8 = alloca ptr, align 8
  %9 = alloca %"class.__gnu_cxx::__normal_iterator.506", align 8
  store ptr %0, ptr %5, align 8
  store ptr %1, ptr %6, align 8
  store ptr %2, ptr %7, align 8
  store ptr %3, ptr %8, align 8
  %10 = load ptr, ptr %5, align 8
  %11 = getelementptr inbounds nuw %"struct.std::_Vector_base.267", ptr %10, i32 0, i32 0
  %12 = getelementptr inbounds nuw %"struct.std::_Vector_base<llvm::vfs::YAMLVFSEntry, std::allocator<llvm::vfs::YAMLVFSEntry>>::_Vector_impl_data", ptr %11, i32 0, i32 1
  %13 = load ptr, ptr %12, align 8
  %14 = getelementptr inbounds nuw %"struct.std::_Vector_base.267", ptr %10, i32 0, i32 0
  %15 = getelementptr inbounds nuw %"struct.std::_Vector_base<llvm::vfs::YAMLVFSEntry, std::allocator<llvm::vfs::YAMLVFSEntry>>::_Vector_impl_data", ptr %14, i32 0, i32 2
  %16 = load ptr, ptr %15, align 8
  %17 = icmp ne ptr %13, %16
  br i1 %17, label %18, label %30

18:                                               ; preds = %4
  %19 = getelementptr inbounds nuw %"struct.std::_Vector_base.267", ptr %10, i32 0, i32 0
  %20 = getelementptr inbounds nuw %"struct.std::_Vector_base.267", ptr %10, i32 0, i32 0
  %21 = getelementptr inbounds nuw %"struct.std::_Vector_base<llvm::vfs::YAMLVFSEntry, std::allocator<llvm::vfs::YAMLVFSEntry>>::_Vector_impl_data", ptr %20, i32 0, i32 1
  %22 = load ptr, ptr %21, align 8
  %23 = load ptr, ptr %6, align 8
  %24 = load ptr, ptr %7, align 8
  %25 = load ptr, ptr %8, align 8
  call void @_ZNSt16allocator_traitsISaIN4llvm3vfs12YAMLVFSEntryEEE9constructIS2_JRNS0_9StringRefES7_RbEEEvRS3_PT_DpOT0_(ptr noundef nonnull align 1 dereferenceable(1) %19, ptr noundef %22, ptr noundef nonnull align 8 dereferenceable(16) %23, ptr noundef nonnull align 8 dereferenceable(16) %24, ptr noundef nonnull align 1 dereferenceable(1) %25)
  %26 = getelementptr inbounds nuw %"struct.std::_Vector_base.267", ptr %10, i32 0, i32 0
  %27 = getelementptr inbounds nuw %"struct.std::_Vector_base<llvm::vfs::YAMLVFSEntry, std::allocator<llvm::vfs::YAMLVFSEntry>>::_Vector_impl_data", ptr %26, i32 0, i32 1
  %28 = load ptr, ptr %27, align 8
  %29 = getelementptr inbounds %"struct.llvm::vfs::YAMLVFSEntry", ptr %28, i32 1
  store ptr %29, ptr %27, align 8
  br label %38

30:                                               ; preds = %4
  %31 = call ptr @_ZNSt6vectorIN4llvm3vfs12YAMLVFSEntryESaIS2_EE3endEv(ptr noundef nonnull align 8 dereferenceable(24) %10) #5
  %32 = getelementptr inbounds nuw %"class.__gnu_cxx::__normal_iterator.506", ptr %9, i32 0, i32 0
  store ptr %31, ptr %32, align 8
  %33 = load ptr, ptr %6, align 8
  %34 = load ptr, ptr %7, align 8
  %35 = load ptr, ptr %8, align 8
  %36 = getelementptr inbounds nuw %"class.__gnu_cxx::__normal_iterator.506", ptr %9, i32 0, i32 0
  %37 = load ptr, ptr %36, align 8
  call void @_ZNSt6vectorIN4llvm3vfs12YAMLVFSEntryESaIS2_EE17_M_realloc_insertIJRNS0_9StringRefES7_RbEEEvN9__gnu_cxx17__normal_iteratorIPS2_S4_EEDpOT_(ptr noundef nonnull align 8 dereferenceable(24) %10, ptr %37, ptr noundef nonnull align 8 dereferenceable(16) %33, ptr noundef nonnull align 8 dereferenceable(16) %34, ptr noundef nonnull align 1 dereferenceable(1) %35)
  br label %38

38:                                               ; preds = %30, %18
  %39 = call noundef nonnull align 8 dereferenceable(65) ptr @_ZNSt6vectorIN4llvm3vfs12YAMLVFSEntryESaIS2_EE4backEv(ptr noundef nonnull align 8 dereferenceable(24) %10) #5
  ret ptr %39
}

; Function Attrs: mustprogress nounwind uwtable
define dso_local void @_ZN4llvm3vfs13YAMLVFSWriter8addEntryENS_9StringRefES2_b(ptr noundef nonnull align 8 dereferenceable(64) %0, ptr %1, i64 %2, ptr %3, i64 %4, i1 noundef zeroext %5) #0 align 2 {
  %7 = alloca %"class.llvm::StringRef", align 8
  %8 = alloca %"class.llvm::StringRef", align 8
  %9 = alloca ptr, align 8
  %10 = alloca i8, align 1
  %11 = getelementptr inbounds nuw { ptr, i64 }, ptr %7, i32 0, i32 0
  store ptr %1, ptr %11, align 8
  %12 = getelementptr inbounds nuw { ptr, i64 }, ptr %7, i32 0, i32 1
  store i64 %2, ptr %12, align 8
  %13 = getelementptr inbounds nuw { ptr, i64 }, ptr %8, i32 0, i32 0
  store ptr %3, ptr %13, align 8
  %14 = getelementptr inbounds nuw { ptr, i64 }, ptr %8, i32 0, i32 1
  store i64 %4, ptr %14, align 8
  store ptr %0, ptr %9, align 8
  %15 = zext i1 %5 to i8
  store i8 %15, ptr %10, align 1
  %16 = load ptr, ptr %9, align 8
  %17 = getelementptr inbounds nuw %"class.llvm::vfs::YAMLVFSWriter", ptr %16, i32 0, i32 0
  %18 = call noundef nonnull align 8 dereferenceable(65) ptr @_ZNSt6vectorIN4llvm3vfs12YAMLVFSEntryESaIS2_EE12emplace_backIJRNS0_9StringRefES7_RbEEERS2_DpOT_(ptr noundef nonnull align 8 dereferenceable(24) %17, ptr noundef nonnull align 8 dereferenceable(16) %7, ptr noundef nonnull align 8 dereferenceable(16) %8, ptr noundef nonnull align 1 dereferenceable(1) %10)
  ret void
}