; Function Attrs: mustprogress nounwind uwtable
define dso_local void @_ZN4llvm3vfs13YAMLVFSWriter8addEntryENS_9StringRefES2_b(ptr noundef nonnull align 8 dereferenceable(64) %0, ptr %1, i64 %2, ptr %3, i64 %4, i1 noundef zeroext %5) local_unnamed_addr #0 align 2 {
  %7 = alloca %"class.llvm::StringRef", align 8
  %8 = alloca %"class.llvm::StringRef", align 8
  %9 = alloca i8, align 1
  store ptr %1, ptr %7, align 8
  %10 = getelementptr inbounds nuw i8, ptr %7, i64 8
  store i64 %2, ptr %10, align 8
  store ptr %3, ptr %8, align 8
  %11 = getelementptr inbounds nuw i8, ptr %8, i64 8
  store i64 %4, ptr %11, align 8
  %12 = zext i1 %5 to i8
  store i8 %12, ptr %9, align 1
  %13 = getelementptr inbounds nuw i8, ptr %0, i64 8
  %14 = load ptr, ptr %13, align 8
  %15 = getelementptr inbounds nuw i8, ptr %0, i64 16
  %16 = load ptr, ptr %15, align 8
  %.not.i = icmp eq ptr %14, %16
  br i1 %.not.i, label %20, label %17

17:                                               ; preds = %6
  call void @_ZN4llvm3vfs12YAMLVFSEntryC2IRNS_9StringRefES4_EEOT_OT0_b(ptr noundef nonnull align 8 dereferenceable(65) %14, ptr noundef nonnull align 8 dereferenceable(16) %7, ptr noundef nonnull align 8 dereferenceable(16) %8, i1 noundef zeroext %5)
  %18 = load ptr, ptr %13, align 8
  %19 = getelementptr inbounds i8, ptr %18, i64 72
  store ptr %19, ptr %13, align 8
  br label %_ZNSt6vectorIN4llvm3vfs12YAMLVFSEntryESaIS2_EE12emplace_backIJRNS0_9StringRefES7_RbEEERS2_DpOT_.exit

20:                                               ; preds = %6
  call void @_ZNSt6vectorIN4llvm3vfs12YAMLVFSEntryESaIS2_EE17_M_realloc_insertIJRNS0_9StringRefES7_RbEEEvN9__gnu_cxx17__normal_iteratorIPS2_S4_EEDpOT_(ptr noundef nonnull align 8 dereferenceable(24) %0, ptr %14, ptr noundef nonnull align 8 dereferenceable(16) %7, ptr noundef nonnull align 8 dereferenceable(16) %8, ptr noundef nonnull align 1 dereferenceable(1) %9)
  br label %_ZNSt6vectorIN4llvm3vfs12YAMLVFSEntryESaIS2_EE12emplace_backIJRNS0_9StringRefES7_RbEEERS2_DpOT_.exit

_ZNSt6vectorIN4llvm3vfs12YAMLVFSEntryESaIS2_EE12emplace_backIJRNS0_9StringRefES7_RbEEERS2_DpOT_.exit: ; preds = %17, %20
  ret void
}